target datalayout = "e-m:e-p270:32:32-p271:32:32-p272:64:64-i64:64-i128:128-f80:128-n8:16:32:64-S128"
target triple = "x86_64-pc-linux-gnu"

%"struct.std::atomic" = type { %"struct.std::__atomic_base" }
%"struct.std::__atomic_base" = type { i32 }
%"struct.base::PersistentMemoryAllocator::BlockHeader" = type { i32, i32, %"struct.std::atomic", %"struct.std::atomic" }
%"class.base::PersistentMemoryAllocator" = type { ptr, ptr, i32, i32, i8, %"struct.std::atomic.0", ptr, ptr }
%"struct.std::atomic.0" = type { %"struct.std::__atomic_base.1" }
%"struct.std::__atomic_base.1" = type { i8 }
%"struct.base::PersistentMemoryAllocator::SharedMetadata" = type { i32, i32, i32, i32, i64, i32, %"struct.std::atomic", %"struct.std::atomic", %"struct.std::atomic", %"struct.base::PersistentMemoryAllocator::BlockHeader" }

; Function Attrs: mustprogress nounwind uwtable
define linkonce_odr noundef i32 @_ZStanSt12memory_orderSt23__memory_order_modifier(i32 noundef %0, i32 noundef %1) #0 comdat {
  %3 = alloca i32, align 4
  %4 = alloca i32, align 4
  store i32 %0, ptr %3, align 4, !tbaa !36
  store i32 %1, ptr %4, align 4, !tbaa !123
  %5 = load i32, ptr %3, align 4, !tbaa !36
  %6 = load i32, ptr %4, align 4, !tbaa !123
  %7 = and i32 %5, %6
  ret i32 %7
}

; Function Attrs: inlinehint mustprogress nounwind uwtable
define linkonce_odr noundef nonnull align 4 dereferenceable(4) ptr @_ZSt3minIjERKT_S2_S2_(ptr noundef nonnull align 4 dereferenceable(4) %0, ptr noundef nonnull align 4 dereferenceable(4) %1) #4 comdat {
  %3 = alloca ptr, align 8
  %4 = alloca ptr, align 8
  %5 = alloca ptr, align 8
  store ptr %0, ptr %4, align 8, !tbaa !38
  store ptr %1, ptr %5, align 8, !tbaa !38
  %6 = load ptr, ptr %5, align 8, !tbaa !38
  %7 = load i32, ptr %6, align 4, !tbaa !17
  %8 = load ptr, ptr %4, align 8, !tbaa !38
  %9 = load i32, ptr %8, align 4, !tbaa !17
  %10 = icmp ult i32 %7, %9
  br i1 %10, label %11, label %13

11:                                               ; preds = %2
  %12 = load ptr, ptr %5, align 8, !tbaa !38
  store ptr %12, ptr %3, align 8
  br label %15

13:                                               ; preds = %2
  %14 = load ptr, ptr %4, align 8, !tbaa !38
  store ptr %14, ptr %3, align 8
  br label %15

15:                                               ; preds = %13, %11
  %16 = load ptr, ptr %3, align 8
  ret ptr %16
}

; Function Attrs: mustprogress nounwind uwtable
define linkonce_odr noundef ptr @_ZNK4base25PersistentMemoryAllocator11shared_metaEv(ptr noundef nonnull align 8 dereferenceable(48) %0) #0 comdat align 2 {
  %2 = alloca ptr, align 8
  store ptr %0, ptr %2, align 8, !tbaa !8
  %3 = load ptr, ptr %2, align 8
  %4 = getelementptr inbounds nuw %"class.base::PersistentMemoryAllocator", ptr %3, i32 0, i32 1
  %5 = load ptr, ptr %4, align 8, !tbaa !30
  ret ptr %5
}

; Function Attrs: alwaysinline mustprogress nounwind uwtable
define linkonce_odr noundef i32 @_ZNVKSt13__atomic_baseIjE4loadESt12memory_order(ptr noundef nonnull align 4 dereferenceable(4) %0, i32 noundef %1) #3 comdat align 2 {
  %3 = alloca ptr, align 8
  %4 = alloca i32, align 4
  %5 = alloca i32, align 4
  %6 = alloca i32, align 4
  store ptr %0, ptr %3, align 8, !tbaa !34
  store i32 %1, ptr %4, align 4, !tbaa !36
  %7 = load ptr, ptr %3, align 8
  call void @llvm.lifetime.start.p0(i64 4, ptr %5) #12
  %8 = load i32, ptr %4, align 4, !tbaa !36
  %9 = call noundef i32 @_ZStanSt12memory_orderSt23__memory_order_modifier(i32 noundef %8, i32 noundef 65535)
  store i32 %9, ptr %5, align 4, !tbaa !36
  br label %10

10:                                               ; preds = %2
  br label %11

11:                                               ; preds = %10
  br label %12

12:                                               ; preds = %11
  br label %13

13:                                               ; preds = %12
  br label %14

14:                                               ; preds = %13
  br label %15

15:                                               ; preds = %14
  %16 = getelementptr inbounds nuw %"struct.std::__atomic_base", ptr %7, i32 0, i32 0
  %17 = load i32, ptr %4, align 4, !tbaa !36
  switch i32 %17, label %18 [
    i32 1, label %20
    i32 2, label %20
    i32 5, label %22
  ]

18:                                               ; preds = %15
  %19 = load atomic volatile i32, ptr %16 monotonic, align 4
  store i32 %19, ptr %6, align 4
  br label %24

20:                                               ; preds = %15, %15
  %21 = load atomic volatile i32, ptr %16 acquire, align 4
  store i32 %21, ptr %6, align 4
  br label %24

22:                                               ; preds = %15
  %23 = load atomic volatile i32, ptr %16 seq_cst, align 4
  store i32 %23, ptr %6, align 4
  br label %24

24:                                               ; preds = %22, %20, %18
  %25 = load i32, ptr %6, align 4, !tbaa !17
  call void @llvm.lifetime.end.p0(i64 4, ptr %5) #12
  ret i32 %25
}

; Function Attrs: mustprogress uwtable
define noundef ptr @_ZNK4base25PersistentMemoryAllocator8GetBlockEjjjbb(ptr noundef nonnull align 8 dereferenceable(48) %0, i32 noundef %1, i32 noundef %2, i32 noundef %3, i1 noundef zeroext %4, i1 noundef zeroext %5) #1 align 2 {
  %7 = alloca ptr, align 8
  %8 = alloca ptr, align 8
  %9 = alloca i32, align 4
  %10 = alloca i32, align 4
  %11 = alloca i32, align 4
  %12 = alloca i8, align 1
  %13 = alloca i8, align 1
  %14 = alloca i32, align 4
  %15 = alloca i32, align 4
  %16 = alloca i32, align 4
  %17 = alloca ptr, align 8
  store ptr %0, ptr %8, align 8, !tbaa !8
  store i32 %1, ptr %9, align 4, !tbaa !17
  store i32 %2, ptr %10, align 4, !tbaa !17
  store i32 %3, ptr %11, align 4, !tbaa !17
  %18 = zext i1 %4 to i8
  store i8 %18, ptr %12, align 1, !tbaa !20
  %19 = zext i1 %5 to i8
  store i8 %19, ptr %13, align 1, !tbaa !20
  %20 = load ptr, ptr %8, align 8
  %21 = load i32, ptr %9, align 4, !tbaa !17
  %22 = urem i32 %21, 8
  %23 = icmp ne i32 %22, 0
  br i1 %23, label %24, label %25

24:                                               ; preds = %6
  store ptr null, ptr %7, align 8
  br label %112

25:                                               ; preds = %6
  %26 = load i32, ptr %9, align 4, !tbaa !17
  %27 = zext i32 %26 to i64
  %28 = load i8, ptr %12, align 1, !tbaa !20, !range !22, !noundef !23
  %29 = trunc i8 %28 to i1
  %30 = select i1 %29, i64 40, i64 56
  %31 = icmp ult i64 %27, %30
  br i1 %31, label %32, label %33

32:                                               ; preds = %25
  store ptr null, ptr %7, align 8
  br label %112

33:                                               ; preds = %25
  %34 = load i32, ptr %11, align 4, !tbaa !17
  %35 = zext i32 %34 to i64
  %36 = add i64 %35, 16
  %37 = trunc i64 %36 to i32
  store i32 %37, ptr %11, align 4, !tbaa !17
  %38 = load i32, ptr %9, align 4, !tbaa !17
  %39 = load i32, ptr %11, align 4, !tbaa !17
  %40 = add i32 %38, %39
  %41 = getelementptr inbounds nuw %"class.base::PersistentMemoryAllocator", ptr %20, i32 0, i32 2
  %42 = load i32, ptr %41, align 8, !tbaa !24
  %43 = icmp ugt i32 %40, %42
  br i1 %43, label %44, label %45

44:                                               ; preds = %33
  store ptr null, ptr %7, align 8
  br label %112

45:                                               ; preds = %33
  %46 = load i8, ptr %13, align 1, !tbaa !20, !range !22, !noundef !23
  %47 = trunc i8 %46 to i1
  br i1 %47, label %106, label %48

48:                                               ; preds = %45
  call void @llvm.lifetime.start.p0(i64 4, ptr %14) #12
  call void @llvm.lifetime.start.p0(i64 4, ptr %15) #12
  %49 = call noundef ptr @_ZNK4base25PersistentMemoryAllocator11shared_metaEv(ptr noundef nonnull align 8 dereferenceable(48) %20)
  %50 = getelementptr inbounds nuw %"struct.base::PersistentMemoryAllocator::SharedMetadata", ptr %49, i32 0, i32 7
  %51 = call noundef i32 @_ZNVKSt13__atomic_baseIjE4loadESt12memory_order(ptr noundef nonnull align 4 dereferenceable(4) %50, i32 noundef 0) #12
  store i32 %51, ptr %15, align 4, !tbaa !17
  %52 = getelementptr inbounds nuw %"class.base::PersistentMemoryAllocator", ptr %20, i32 0, i32 2
  %53 = call noundef nonnull align 4 dereferenceable(4) ptr @_ZSt3minIjERKT_S2_S2_(ptr noundef nonnull align 4 dereferenceable(4) %15, ptr noundef nonnull align 4 dereferenceable(4) %52)
  %54 = load i32, ptr %53, align 4, !tbaa !17
  call void @llvm.lifetime.end.p0(i64 4, ptr %15) #12
  store i32 %54, ptr %14, align 4, !tbaa !17
  %55 = load i32, ptr %9, align 4, !tbaa !17
  %56 = load i32, ptr %11, align 4, !tbaa !17
  %57 = add i32 %55, %56
  %58 = load i32, ptr %14, align 4, !tbaa !17
  %59 = icmp ugt i32 %57, %58
  br i1 %59, label %60, label %61

60:                                               ; preds = %48
  store ptr null, ptr %7, align 8
  store i32 1, ptr %16, align 4
  br label %103

61:                                               ; preds = %48
  call void @llvm.lifetime.start.p0(i64 8, ptr %17) #12
  %62 = getelementptr inbounds nuw %"class.base::PersistentMemoryAllocator", ptr %20, i32 0, i32 1
  %63 = load ptr, ptr %62, align 8, !tbaa !30
  %64 = load i32, ptr %9, align 4, !tbaa !17
  %65 = zext i32 %64 to i64
  %66 = getelementptr inbounds nuw i8, ptr %63, i64 %65
  store ptr %66, ptr %17, align 8, !tbaa !18
  %67 = load ptr, ptr %17, align 8, !tbaa !18
  %68 = getelementptr inbounds nuw %"struct.base::PersistentMemoryAllocator::BlockHeader", ptr %67, i32 0, i32 0
  %69 = load volatile i32, ptr %68, align 4, !tbaa !31
  %70 = load i32, ptr %11, align 4, !tbaa !17
  %71 = icmp ult i32 %69, %70
  br i1 %71, label %72, label %73

72:                                               ; preds = %61
  store ptr null, ptr %7, align 8
  store i32 1, ptr %16, align 4
  br label %102

73:                                               ; preds = %61
  %74 = load i32, ptr %9, align 4, !tbaa !17
  %75 = load ptr, ptr %17, align 8, !tbaa !18
  %76 = getelementptr inbounds nuw %"struct.base::PersistentMemoryAllocator::BlockHeader", ptr %75, i32 0, i32 0
  %77 = load volatile i32, ptr %76, align 4, !tbaa !31
  %78 = add i32 %74, %77
  %79 = load i32, ptr %14, align 4, !tbaa !17
  %80 = icmp ugt i32 %78, %79
  br i1 %80, label %81, label %82

81:                                               ; preds = %73
  store ptr null, ptr %7, align 8
  store i32 1, ptr %16, align 4
  br label %102

82:                                               ; preds = %73
  %83 = load i32, ptr %9, align 4, !tbaa !17
  %84 = icmp ne i32 %83, 40
  br i1 %84, label %85, label %91

85:                                               ; preds = %82
  %86 = load ptr, ptr %17, align 8, !tbaa !18
  %87 = getelementptr inbounds nuw %"struct.base::PersistentMemoryAllocator::BlockHeader", ptr %86, i32 0, i32 1
  %88 = load volatile i32, ptr %87, align 4, !tbaa !33
  %89 = icmp ne i32 %88, -931556759
  br i1 %89, label %90, label %91

90:                                               ; preds = %85
  store ptr null, ptr %7, align 8
  store i32 1, ptr %16, align 4
  br label %102

91:                                               ; preds = %85, %82
  %92 = load i32, ptr %10, align 4, !tbaa !17
  %93 = icmp ne i32 %92, 0
  br i1 %93, label %94, label %101

94:                                               ; preds = %91
  %95 = load ptr, ptr %17, align 8, !tbaa !18
  %96 = getelementptr inbounds nuw %"struct.base::PersistentMemoryAllocator::BlockHeader", ptr %95, i32 0, i32 2
  %97 = call noundef i32 @_ZNVKSt13__atomic_baseIjE4loadESt12memory_order(ptr noundef nonnull align 4 dereferenceable(4) %96, i32 noundef 0) #12
  %98 = load i32, ptr %10, align 4, !tbaa !17
  %99 = icmp ne i32 %97, %98
  br i1 %99, label %100, label %101

100:                                              ; preds = %94
  store ptr null, ptr %7, align 8
  store i32 1, ptr %16, align 4
  br label %102

101:                                              ; preds = %94, %91
  store i32 0, ptr %16, align 4
  br label %102

102:                                              ; preds = %101, %100, %90, %81, %72
  call void @llvm.lifetime.end.p0(i64 8, ptr %17) #12
  br label %103

103:                                              ; preds = %102, %60
  call void @llvm.lifetime.end.p0(i64 4, ptr %14) #12
  %104 = load i32, ptr %16, align 4
  switch i32 %104, label %114 [
    i32 0, label %105
    i32 1, label %112
  ]

105:                                              ; preds = %103
  br label %106

106:                                              ; preds = %105, %45
  %107 = getelementptr inbounds nuw %"class.base::PersistentMemoryAllocator", ptr %20, i32 0, i32 1
  %108 = load ptr, ptr %107, align 8, !tbaa !30
  %109 = load i32, ptr %9, align 4, !tbaa !17
  %110 = zext i32 %109 to i64
  %111 = getelementptr inbounds nuw i8, ptr %108, i64 %110
  store ptr %111, ptr %7, align 8
  br label %112

112:                                              ; preds = %106, %103, %44, %32, %24
  %113 = load ptr, ptr %7, align 8
  ret ptr %113

114:                                              ; preds = %103
  unreachable
}

; Function Attrs: mustprogress uwtable
define noundef i32 @_ZNK4base25PersistentMemoryAllocator7GetTypeEj(ptr noundef nonnull align 8 dereferenceable(48) %0, i32 noundef %1) #1 align 2 {
  %3 = alloca i32, align 4
  %4 = alloca ptr, align 8
  %5 = alloca i32, align 4
  %6 = alloca ptr, align 8
  %7 = alloca i32, align 4
  store ptr %0, ptr %4, align 8, !tbaa !8
  store i32 %1, ptr %5, align 4, !tbaa !17
  %8 = load ptr, ptr %4, align 8
  call void @llvm.lifetime.start.p0(i64 8, ptr %6) #12
  %9 = load i32, ptr %5, align 4, !tbaa !17
  %10 = call noundef ptr @_ZNK4base25PersistentMemoryAllocator8GetBlockEjjjbb(ptr noundef nonnull align 8 dereferenceable(48) %8, i32 noundef %9, i32 noundef 0, i32 noundef 0, i1 noundef zeroext false, i1 noundef zeroext false)
  store ptr %10, ptr %6, align 8, !tbaa !18
  %11 = load ptr, ptr %6, align 8, !tbaa !18
  %12 = icmp ne ptr %11, null
  br i1 %12, label %14, label %13

13:                                               ; preds = %2
  store i32 0, ptr %3, align 4
  store i32 1, ptr %7, align 4
  br label %18

14:                                               ; preds = %2
  %15 = load ptr, ptr %6, align 8, !tbaa !18
  %16 = getelementptr inbounds nuw %"struct.base::PersistentMemoryAllocator::BlockHeader", ptr %15, i32 0, i32 2
  %17 = call noundef i32 @_ZNVKSt13__atomic_baseIjE4loadESt12memory_order(ptr noundef nonnull align 4 dereferenceable(4) %16, i32 noundef 0) #12
  store i32 %17, ptr %3, align 4
  store i32 1, ptr %7, align 4
  br label %18

18:                                               ; preds = %14, %13
  call void @llvm.lifetime.end.p0(i64 8, ptr %6) #12
  %19 = load i32, ptr %3, align 4
  ret i32 %19
}