; Function Attrs: mustprogress nofree norecurse nounwind willreturn uwtable
define noundef i32 @_ZNK4base25PersistentMemoryAllocator7GetTypeEj(ptr noundef nonnull readonly align 8 captures(none) dereferenceable(48) %0, i32 noundef %1) local_unnamed_addr #1 align 2 {
  %3 = and i32 %1, 7
  %.not.i = icmp eq i32 %3, 0
  br i1 %.not.i, label %4, label %_ZNK4base25PersistentMemoryAllocator8GetBlockEjjjbb.exit.thread

4:                                                ; preds = %2
  %5 = zext i32 %1 to i64
  %6 = icmp ult i32 %1, 56
  br i1 %6, label %_ZNK4base25PersistentMemoryAllocator8GetBlockEjjjbb.exit.thread, label %7

7:                                                ; preds = %4
  %8 = add i32 %1, 16
  %9 = getelementptr inbounds nuw i8, ptr %0, i64 16
  %10 = load i32, ptr %9, align 8, !tbaa !13
  %11 = icmp ugt i32 %8, %10
  br i1 %11, label %_ZNK4base25PersistentMemoryAllocator8GetBlockEjjjbb.exit.thread, label %12

12:                                               ; preds = %7
  %.phi.trans.insert.i = getelementptr inbounds nuw i8, ptr %0, i64 8
  %.pre.i = load ptr, ptr %.phi.trans.insert.i, align 8, !tbaa !20
  %13 = getelementptr inbounds nuw i8, ptr %.pre.i, i64 32
  %14 = load atomic volatile i32, ptr %13 monotonic, align 4
  %.sroa.speculated.i = tail call i32 @llvm.umin.i32(i32 %10, i32 %14)
  %15 = icmp ult i32 %14, %8
  br i1 %15, label %_ZNK4base25PersistentMemoryAllocator8GetBlockEjjjbb.exit.thread, label %16

16:                                               ; preds = %12
  %17 = getelementptr inbounds nuw i8, ptr %.pre.i, i64 %5
  %18 = load volatile i32, ptr %17, align 4, !tbaa !21
  %19 = icmp ult i32 %18, 16
  br i1 %19, label %_ZNK4base25PersistentMemoryAllocator8GetBlockEjjjbb.exit.thread, label %20

20:                                               ; preds = %16
  %21 = load volatile i32, ptr %17, align 4, !tbaa !21
  %22 = add i32 %21, %1
  %23 = icmp ugt i32 %22, %.sroa.speculated.i
  br i1 %23, label %_ZNK4base25PersistentMemoryAllocator8GetBlockEjjjbb.exit.thread, label %24

24:                                               ; preds = %20
  %25 = getelementptr inbounds nuw i8, ptr %17, i64 4
  %26 = load volatile i32, ptr %25, align 4, !tbaa !23
  %.not31.i = icmp eq i32 %26, -931556759
  br i1 %.not31.i, label %_ZNK4base25PersistentMemoryAllocator8GetBlockEjjjbb.exit, label %_ZNK4base25PersistentMemoryAllocator8GetBlockEjjjbb.exit.thread

_ZNK4base25PersistentMemoryAllocator8GetBlockEjjjbb.exit: ; preds = %24
  %27 = getelementptr inbounds nuw i8, ptr %17, i64 8
  %28 = load atomic volatile i32, ptr %27 monotonic, align 4
  br label %_ZNK4base25PersistentMemoryAllocator8GetBlockEjjjbb.exit.thread

_ZNK4base25PersistentMemoryAllocator8GetBlockEjjjbb.exit.thread: ; preds = %24, %20, %16, %12, %7, %4, %2, %_ZNK4base25PersistentMemoryAllocator8GetBlockEjjjbb.exit
  %.0 = phi i32 [ %28, %_ZNK4base25PersistentMemoryAllocator8GetBlockEjjjbb.exit ], [ 0, %2 ], [ 0, %4 ], [ 0, %7 ], [ 0, %12 ], [ 0, %16 ], [ 0, %20 ], [ 0, %24 ]
  ret i32 %.0
}